ccopy_reg
_reconstructor
p1
(cnetworkx.classes.graph
Graph
p2
c__builtin__
object
p3
NtRp4
(dp5
S'node'
p6
(dp7
I0
(dp8
sI1
(dp9
sI2
(dp10
sI3
(dp11
sI4
(dp12
sI5
(dp13
sI6
(dp14
sI7
(dp15
sI8
(dp16
sI9
(dp17
sI10
(dp18
sI11
(dp19
sI12
(dp20
sI13
(dp21
sI14
(dp22
sI15
(dp23
sI16
(dp24
sI17
(dp25
sI18
(dp26
sI19
(dp27
ssS'graph'
p28
(dp29
sS'edge'
p30
(dp31
I0
(dp32
I16
(dp33
ssI1
(dp34
I8
(dp35
sI2
(dp36
sI6
(dp37
sI7
(dp38
ssI2
(dp39
I16
(dp40
sI1
g36
sI11
(dp41
sI17
(dp42
ssI3
(dp43
I16
(dp44
sI17
(dp45
sI14
(dp46
ssI4
(dp47
I17
(dp48
sI13
(dp49
sI7
(dp50
ssI5
(dp51
I11
(dp52
sI6
(dp53
ssI6
(dp54
I1
g37
sI18
(dp55
sI5
g53
ssI7
(dp56
I1
g38
sI4
g50
ssI8
(dp57
I1
g35
ssI9
(dp58
I12
(dp59
ssI10
(dp60
I13
(dp61
ssI11
(dp62
I17
(dp63
sI2
g41
sI5
g52
ssI12
(dp64
I9
g59
ssI13
(dp65
I10
g61
sI4
g49
sI15
(dp66
ssI14
(dp67
I3
g46
ssI15
(dp68
I17
(dp69
sI13
g66
ssI16
(dp70
I0
g33
sI19
(dp71
sI2
g40
sI3
g44
ssI17
(dp72
I11
g63
sI2
g42
sI3
g45
sI4
g48
sI15
g69
ssI18
(dp73
I6
g55
ssI19
(dp74
I16
g71
sssS'adj'
p75
g31
sb.