ccopy_reg
_reconstructor
p1
(cnetworkx.classes.graph
Graph
p2
c__builtin__
object
p3
NtRp4
(dp5
S'node'
p6
(dp7
I0
(dp8
sI1
(dp9
sI2
(dp10
sI3
(dp11
ssS'graph'
p12
(dp13
sS'edge'
p14
(dp15
I0
(dp16
I1
(dp17
ssI1
(dp18
I0
g17
sI2
(dp19
sI3
(dp20
ssI2
(dp21
I1
g19
ssI3
(dp22
I1
g20
sssS'adj'
p23
g15
sb.