ccopy_reg
_reconstructor
p1
(cnetworkx.classes.graph
Graph
p2
c__builtin__
object
p3
NtRp4
(dp5
S'node'
p6
(dp7
I0
(dp8
sI1
(dp9
sI2
(dp10
sI3
(dp11
sI4
(dp12
sI5
(dp13
sI6
(dp14
sI7
(dp15
sI8
(dp16
sI9
(dp17
sI10
(dp18
sI11
(dp19
sI12
(dp20
sI13
(dp21
sI14
(dp22
sI15
(dp23
sI16
(dp24
sI17
(dp25
sI18
(dp26
sI19
(dp27
sI20
(dp28
sI21
(dp29
sI22
(dp30
sI23
(dp31
sI24
(dp32
sI25
(dp33
sI26
(dp34
sI27
(dp35
sI28
(dp36
sI29
(dp37
sI30
(dp38
sI31
(dp39
sI32
(dp40
sI33
(dp41
sI34
(dp42
sI35
(dp43
sI36
(dp44
sI37
(dp45
sI38
(dp46
sI39
(dp47
sI40
(dp48
sI41
(dp49
sI42
(dp50
sI43
(dp51
sI44
(dp52
sI45
(dp53
sI46
(dp54
sI47
(dp55
sI48
(dp56
sI49
(dp57
ssS'graph'
p58
(dp59
sS'edge'
p60
(dp61
I0
(dp62
I3
(dp63
sI5
(dp64
sI8
(dp65
sI42
(dp66
sI43
(dp67
sI45
(dp68
sI49
(dp69
sI10
(dp70
ssI1
(dp71
I45
(dp72
sI35
(dp73
sI5
(dp74
sI39
(dp75
sI47
(dp76
sI13
(dp77
sI46
(dp78
sI15
(dp79
sI16
(dp80
sI20
(dp81
sI22
(dp82
sI24
(dp83
sI25
(dp84
sI27
(dp85
sI31
(dp86
ssI2
(dp87
I3
(dp88
sI36
(dp89
sI9
(dp90
sI10
(dp91
sI12
(dp92
sI46
(dp93
sI15
(dp94
sI48
(dp95
sI21
(dp96
sI47
(dp97
sI28
(dp98
sI42
(dp99
ssI3
(dp100
I0
g63
sI33
(dp101
sI2
g88
sI35
(dp102
sI36
(dp103
sI5
(dp104
sI7
(dp105
sI8
(dp106
sI9
(dp107
sI11
(dp108
sI45
(dp109
sI40
(dp110
sI25
(dp111
sI30
(dp112
ssI4
(dp113
I40
(dp114
sI44
(dp115
sI43
(dp116
sI12
(dp117
sI45
(dp118
sI47
(dp119
sI15
(dp120
sI16
(dp121
sI20
(dp122
sI24
(dp123
sI26
(dp124
sI27
(dp125
sI30
(dp126
ssI5
(dp127
I0
g64
sI1
g74
sI3
g104
sI32
(dp128
sI37
(dp129
sI7
(dp130
sI42
(dp131
sI43
(dp132
sI45
(dp133
sI46
(dp134
sI49
(dp135
sI18
(dp136
sI25
(dp137
ssI6
(dp138
I33
(dp139
sI35
(dp140
sI37
(dp141
sI41
(dp142
sI43
(dp143
sI45
(dp144
sI46
(dp145
sI15
(dp146
sI16
(dp147
sI17
(dp148
sI18
(dp149
sI20
(dp150
sI23
(dp151
sI24
(dp152
sI28
(dp153
sI29
(dp154
ssI7
(dp155
I32
(dp156
sI3
g105
sI5
g130
sI40
(dp157
sI9
(dp158
sI46
(dp159
sI44
(dp160
sI14
(dp161
sI47
(dp162
sI49
(dp163
sI18
(dp164
sI35
(dp165
sI20
(dp166
sI21
(dp167
sI22
(dp168
sI41
(dp169
sI24
(dp170
sI26
(dp171
sI37
(dp172
sI31
(dp173
ssI8
(dp174
I0
g65
sI32
(dp175
sI34
(dp176
sI3
g106
sI41
(dp177
sI11
(dp178
sI47
(dp179
sI16
(dp180
sI17
(dp181
sI20
(dp182
sI43
(dp183
sI27
(dp184
sI28
(dp185
sI31
(dp186
ssI9
(dp187
I33
(dp188
sI2
g90
sI3
g107
sI38
(dp189
sI35
(dp190
sI7
g158
sI44
(dp191
sI10
(dp192
sI43
(dp193
sI12
(dp194
sI14
(dp195
sI15
(dp196
sI19
(dp197
sI25
(dp198
sI26
(dp199
ssI10
(dp200
I0
g70
sI2
g91
sI37
(dp201
sI38
(dp202
sI39
(dp203
sI9
g192
sI42
(dp204
sI17
(dp205
sI19
(dp206
sI20
(dp207
sI30
(dp208
sI31
(dp209
ssI11
(dp210
I32
(dp211
sI33
(dp212
sI34
(dp213
sI3
g108
sI37
(dp214
sI8
g178
sI41
(dp215
sI46
(dp216
sI15
(dp217
sI18
(dp218
sI35
(dp219
sI20
(dp220
sI22
(dp221
sI47
(dp222
sI28
(dp223
sI31
(dp224
ssI12
(dp225
I48
(dp226
sI2
g92
sI4
g117
sI49
(dp227
sI9
g194
sI43
(dp228
sI45
(dp229
sI14
(dp230
sI16
(dp231
sI17
(dp232
sI20
(dp233
sI28
(dp234
sI29
(dp235
sI31
(dp236
ssI13
(dp237
I1
g77
sI41
(dp238
sI14
(dp239
sI15
(dp240
sI19
(dp241
sI20
(dp242
sI23
(dp243
sI24
(dp244
sI26
(dp245
sI29
(dp246
ssI14
(dp247
I37
(dp248
sI7
g161
sI9
g195
sI39
(dp249
sI12
g230
sI13
g239
sI48
(dp250
sI49
(dp251
sI19
(dp252
sI23
(dp253
sI26
(dp254
sI29
(dp255
ssI15
(dp256
I1
g79
sI2
g94
sI4
g120
sI6
g146
sI33
(dp257
sI9
g196
sI11
g217
sI44
(dp258
sI13
g240
sI16
(dp259
sI49
(dp260
sI19
(dp261
sI48
(dp262
sI27
(dp263
sI30
(dp264
sI31
(dp265
ssI16
(dp266
I1
g80
sI35
(dp267
sI4
g121
sI38
(dp268
sI6
g147
sI33
(dp269
sI8
g180
sI41
(dp270
sI12
g231
sI46
(dp271
sI15
g259
sI48
(dp272
sI17
(dp273
sI19
(dp274
sI25
(dp275
sI29
(dp276
sI30
(dp277
ssI17
(dp278
I32
(dp279
sI33
(dp280
sI6
g148
sI8
g181
sI44
(dp281
sI10
g205
sI12
g232
sI45
(dp282
sI46
(dp283
sI16
g273
sI22
(dp284
sI23
(dp285
sI29
(dp286
ssI18
(dp287
I33
(dp288
sI35
(dp289
sI5
g136
sI6
g149
sI7
g164
sI42
(dp290
sI11
g218
sI22
(dp291
sI28
(dp292
sI31
(dp293
ssI19
(dp294
I45
(dp295
sI38
(dp296
sI39
(dp297
sI9
g197
sI10
g206
sI43
(dp298
sI13
g241
sI14
g252
sI15
g261
sI16
g274
sI49
(dp299
sI42
(dp300
sI23
(dp301
sI26
(dp302
sI47
(dp303
sI29
(dp304
ssI20
(dp305
I1
g81
sI4
g122
sI37
(dp306
sI6
g150
sI7
g166
sI8
g182
sI44
(dp307
sI10
g207
sI11
g220
sI12
g233
sI13
g242
sI47
(dp308
sI40
(dp309
sI24
(dp310
sI28
(dp311
sI42
(dp312
ssI21
(dp313
I2
g96
sI37
(dp314
sI7
g167
sI44
(dp315
sI45
(dp316
sI22
(dp317
sI24
(dp318
sI25
(dp319
ssI22
(dp320
I32
(dp321
sI1
g82
sI49
(dp322
sI7
g168
sI41
(dp323
sI11
g221
sI44
(dp324
sI47
(dp325
sI48
(dp326
sI17
g284
sI18
g291
sI21
g317
sI27
(dp327
sI29
(dp328
sI30
(dp329
ssI23
(dp330
I32
(dp331
sI34
(dp332
sI6
g151
sI42
(dp333
sI43
(dp334
sI13
g243
sI14
g253
sI17
g285
sI19
g301
sI27
(dp335
sI29
(dp336
ssI24
(dp337
I32
(dp338
sI1
g83
sI4
g123
sI6
g152
sI7
g170
sI40
(dp339
sI13
g244
sI48
(dp340
sI20
g310
sI21
g318
sI25
(dp341
sI27
(dp342
ssI25
(dp343
I1
g84
sI34
(dp344
sI3
g111
sI5
g137
sI48
(dp345
sI9
g198
sI45
(dp346
sI46
(dp347
sI16
g275
sI21
g319
sI24
g341
ssI26
(dp348
I32
(dp349
sI33
(dp350
sI4
g124
sI7
g171
sI9
g199
sI42
(dp351
sI13
g245
sI14
g254
sI48
(dp352
sI19
g302
sI36
(dp353
sI27
(dp354
sI29
(dp355
sI30
(dp356
ssI27
(dp357
I32
(dp358
sI1
g85
sI35
(dp359
sI4
g125
sI8
g184
sI41
(dp360
sI44
(dp361
sI45
(dp362
sI15
g263
sI48
(dp363
sI22
g327
sI23
g335
sI24
g342
sI26
g354
sI47
(dp364
sI29
(dp365
sI30
(dp366
ssI28
(dp367
I33
(dp368
sI2
g98
sI35
(dp369
sI36
(dp370
sI37
(dp371
sI6
g153
sI8
g185
sI11
g223
sI12
g234
sI34
(dp372
sI45
(dp373
sI43
(dp374
sI18
g292
sI20
g311
ssI29
(dp375
I35
(dp376
sI6
g154
sI44
(dp377
sI43
(dp378
sI12
g235
sI13
g246
sI14
g255
sI45
(dp379
sI16
g276
sI17
g286
sI19
g304
sI22
g328
sI23
g336
sI26
g355
sI27
g365
sI31
(dp380
ssI30
(dp381
I3
g112
sI4
g126
sI37
(dp382
sI39
(dp383
sI10
g208
sI15
g264
sI16
g277
sI22
g329
sI26
g356
sI27
g366
sI31
(dp384
ssI31
(dp385
I1
g86
sI36
(dp386
sI33
(dp387
sI38
(dp388
sI7
g173
sI8
g186
sI10
g209
sI11
g224
sI12
g236
sI46
(dp389
sI15
g265
sI48
(dp390
sI40
(dp391
sI18
g293
sI29
g380
sI30
g384
ssI32
(dp392
I34
(dp393
sI35
(dp394
sI36
(dp395
sI5
g128
sI7
g156
sI8
g175
sI42
(dp396
sI11
g211
sI45
(dp397
sI47
(dp398
sI49
(dp399
sI17
g279
sI22
g321
sI23
g331
sI24
g338
sI39
(dp400
sI26
g349
sI27
g358
ssI33
(dp401
I34
(dp402
sI3
g101
sI6
g139
sI39
(dp403
sI9
g188
sI11
g212
sI44
(dp404
sI45
(dp405
sI46
(dp406
sI15
g257
sI16
g269
sI17
g280
sI18
g288
sI43
(dp407
sI41
(dp408
sI26
g350
sI47
(dp409
sI28
g368
sI31
g387
ssI34
(dp410
I32
g393
sI33
g402
sI35
(dp411
sI8
g176
sI11
g213
sI44
(dp412
sI45
(dp413
sI40
(dp414
sI43
(dp415
sI23
g332
sI25
g344
sI28
g372
ssI35
(dp416
I32
g394
sI1
g73
sI34
g411
sI3
g102
sI36
(dp417
sI6
g140
sI7
g165
sI40
(dp418
sI9
g190
sI42
(dp419
sI11
g219
sI45
(dp420
sI16
g267
sI18
g289
sI41
(dp421
sI39
(dp422
sI27
g359
sI28
g369
sI29
g376
ssI36
(dp423
I32
g395
sI2
g89
sI3
g103
sI42
(dp424
sI45
(dp425
sI47
(dp426
sI49
(dp427
sI35
g417
sI26
g353
sI28
g370
sI31
g386
ssI37
(dp428
I43
(dp429
sI5
g129
sI6
g141
sI7
g172
sI10
g201
sI11
g214
sI14
g248
sI20
g306
sI21
g314
sI39
(dp430
sI38
(dp431
sI28
g371
sI30
g382
ssI38
(dp432
I48
(dp433
sI37
g431
sI9
g189
sI10
g202
sI16
g268
sI19
g296
sI41
(dp434
sI42
(dp435
sI31
g388
ssI39
(dp436
I32
g400
sI1
g75
sI35
g422
sI37
g430
sI33
g403
sI10
g203
sI14
g249
sI19
g297
sI30
g383
ssI40
(dp437
I34
g414
sI3
g110
sI4
g114
sI7
g157
sI45
(dp438
sI46
(dp439
sI47
(dp440
sI35
g418
sI20
g309
sI24
g339
sI31
g391
ssI41
(dp441
I33
g408
sI35
g421
sI38
g434
sI6
g142
sI7
g169
sI8
g177
sI42
(dp442
sI11
g215
sI44
(dp443
sI13
g238
sI16
g270
sI22
g323
sI27
g360
ssI42
(dp444
I0
g66
sI32
g396
sI2
g99
sI35
g419
sI36
g424
sI5
g131
sI38
g435
sI41
g442
sI10
g204
sI44
(dp445
sI47
(dp446
sI49
(dp447
sI18
g290
sI19
g300
sI20
g312
sI23
g333
sI26
g351
ssI43
(dp448
I0
g67
sI33
g407
sI34
g415
sI4
g116
sI5
g132
sI6
g143
sI8
g183
sI9
g193
sI12
g228
sI44
(dp449
sI19
g298
sI23
g334
sI47
(dp450
sI28
g374
sI29
g378
sI37
g429
ssI44
(dp451
I33
g404
sI34
g412
sI4
g115
sI49
(dp452
sI7
g160
sI9
g191
sI42
g445
sI43
g449
sI45
(dp453
sI15
g258
sI17
g281
sI20
g307
sI21
g315
sI22
g324
sI41
g443
sI27
g361
sI29
g377
ssI45
(dp454
I0
g68
sI1
g72
sI3
g109
sI4
g118
sI5
g133
sI6
g144
sI12
g229
sI17
g282
sI19
g295
sI21
g316
sI25
g346
sI27
g362
sI28
g373
sI29
g379
sI32
g397
sI33
g405
sI34
g413
sI35
g420
sI36
g425
sI40
g438
sI44
g453
sI47
(dp455
sI49
(dp456
ssI46
(dp457
I1
g78
sI2
g93
sI5
g134
sI6
g145
sI7
g159
sI40
g439
sI11
g216
sI47
(dp458
sI16
g271
sI17
g283
sI25
g347
sI33
g406
sI31
g389
ssI47
(dp459
I32
g398
sI1
g76
sI2
g97
sI43
g450
sI4
g119
sI33
g409
sI7
g162
sI8
g179
sI42
g446
sI11
g222
sI45
g455
sI46
g458
sI40
g440
sI19
g303
sI20
g308
sI22
g325
sI36
g426
sI27
g364
ssI48
(dp460
I2
g95
sI38
g433
sI12
g226
sI14
g250
sI15
g262
sI16
g272
sI22
g326
sI24
g340
sI25
g345
sI26
g352
sI27
g363
sI31
g390
ssI49
(dp461
I0
g69
sI32
g399
sI36
g427
sI5
g135
sI7
g163
sI44
g452
sI42
g447
sI12
g227
sI45
g456
sI14
g251
sI15
g260
sI19
g299
sI22
g322
sssS'adj'
p462
g61
sb.