ccopy_reg
_reconstructor
p1
(cnetworkx.classes.graph
Graph
p2
c__builtin__
object
p3
NtRp4
(dp5
S'node'
p6
(dp7
I0
(dp8
sI1
(dp9
sI2
(dp10
sI3
(dp11
sI4
(dp12
sI5
(dp13
sI6
(dp14
sI7
(dp15
sI8
(dp16
sI9
(dp17
sI10
(dp18
sI11
(dp19
sI12
(dp20
sI13
(dp21
sI14
(dp22
sI15
(dp23
sI16
(dp24
sI17
(dp25
sI18
(dp26
sI19
(dp27
sI20
(dp28
sI21
(dp29
sI22
(dp30
sI23
(dp31
sI24
(dp32
sI25
(dp33
sI26
(dp34
sI27
(dp35
sI28
(dp36
sI29
(dp37
sI30
(dp38
sI31
(dp39
sI32
(dp40
sI33
(dp41
sI34
(dp42
sI35
(dp43
sI36
(dp44
sI37
(dp45
sI38
(dp46
sI39
(dp47
sI40
(dp48
sI41
(dp49
sI42
(dp50
sI43
(dp51
sI44
(dp52
sI45
(dp53
sI46
(dp54
sI47
(dp55
sI48
(dp56
sI49
(dp57
sI50
(dp58
sI51
(dp59
sI52
(dp60
sI53
(dp61
sI54
(dp62
sI55
(dp63
sI56
(dp64
sI57
(dp65
sI58
(dp66
sI59
(dp67
sI60
(dp68
sI61
(dp69
sI62
(dp70
sI63
(dp71
sI64
(dp72
sI65
(dp73
sI66
(dp74
sI67
(dp75
sI68
(dp76
sI69
(dp77
sI70
(dp78
sI71
(dp79
sI72
(dp80
sI73
(dp81
sI74
(dp82
sI75
(dp83
sI76
(dp84
sI77
(dp85
sI78
(dp86
sI79
(dp87
sI80
(dp88
sI81
(dp89
sI82
(dp90
sI83
(dp91
sI84
(dp92
sI85
(dp93
sI86
(dp94
sI87
(dp95
sI88
(dp96
sI89
(dp97
sI90
(dp98
sI91
(dp99
sI92
(dp100
sI93
(dp101
sI94
(dp102
sI95
(dp103
sI96
(dp104
sI97
(dp105
sI98
(dp106
sI99
(dp107
ssS'graph'
p108
(dp109
sS'edge'
p110
(dp111
I0
(dp112
I34
(dp113
sI68
(dp114
sI80
(dp115
sI49
(dp116
sI52
(dp117
sI55
(dp118
sI4
(dp119
sI93
(dp120
ssI1
(dp121
I64
(dp122
sI65
(dp123
sI3
(dp124
sI36
(dp125
sI14
(dp126
sI79
(dp127
sI49
(dp128
sI83
(dp129
sI91
(dp130
sI93
(dp131
sI94
(dp132
sI63
(dp133
ssI2
(dp134
I70
(dp135
sI11
(dp136
sI17
(dp137
sI55
(dp138
sI28
(dp139
sI31
(dp140
ssI3
(dp141
I1
g124
sI59
(dp142
sI68
(dp143
sI39
(dp144
sI93
(dp145
sI80
(dp146
sI91
(dp147
sI83
(dp148
sI53
(dp149
sI54
(dp150
sI87
(dp151
sI89
(dp152
sI27
(dp153
sI61
(dp154
sI21
(dp155
ssI4
(dp156
I0
g119
sI96
(dp157
sI36
(dp158
sI38
(dp159
sI45
(dp160
sI25
(dp161
sI90
(dp162
sI91
(dp163
sI29
(dp164
ssI5
(dp165
I96
(dp166
sI66
(dp167
sI35
(dp168
sI69
(dp169
sI70
(dp170
sI9
(dp171
sI10
(dp172
sI77
(dp173
sI99
(dp174
sI84
(dp175
sI55
(dp176
sI56
(dp177
sI25
(dp178
sI74
(dp179
ssI6
(dp180
I99
(dp181
sI10
(dp182
sI44
(dp183
sI18
(dp184
sI82
(dp185
sI83
(dp186
sI26
(dp187
ssI7
(dp188
I37
(dp189
sI14
(dp190
sI76
(dp191
sI78
(dp192
sI21
(dp193
sI88
(dp194
sI93
(dp195
ssI8
(dp196
I70
(dp197
sI40
(dp198
sI43
(dp199
sI53
(dp200
sI22
(dp201
sI26
(dp202
sI92
(dp203
ssI9
(dp204
I80
(dp205
sI65
(dp206
sI90
(dp207
sI5
g171
ssI10
(dp208
I5
g172
sI6
g182
sI39
(dp209
sI40
(dp210
sI74
(dp211
sI71
(dp212
sI82
(dp213
sI46
(dp214
sI15
(dp215
sI16
(dp216
sI50
(dp217
sI47
(dp218
ssI11
(dp219
I80
(dp220
sI2
g136
sI71
(dp221
sI41
(dp222
sI42
(dp223
sI77
(dp224
sI48
(dp225
sI81
(dp226
sI18
(dp227
sI20
(dp228
sI53
(dp229
sI73
(dp230
sI23
(dp231
sI56
(dp232
sI63
(dp233
ssI12
(dp234
I99
(dp235
sI36
(dp236
sI72
(dp237
sI45
(dp238
sI21
(dp239
sI22
(dp240
sI87
(dp241
sI88
(dp242
sI57
(dp243
sI91
(dp244
sI94
(dp245
ssI13
(dp246
I24
(dp247
sI17
(dp248
sI79
(dp249
sI99
(dp250
sI71
(dp251
ssI14
(dp252
I96
(dp253
sI1
g126
sI35
(dp254
sI69
(dp255
sI7
g190
sI77
(dp256
sI48
(dp257
sI88
(dp258
sI82
(dp259
sI53
(dp260
sI24
(dp261
sI27
(dp262
sI85
(dp263
ssI15
(dp264
I33
(dp265
sI41
(dp266
sI10
g215
sI75
(dp267
sI45
(dp268
sI93
(dp269
sI52
(dp270
sI54
(dp271
sI56
(dp272
sI89
(dp273
sI42
(dp274
ssI16
(dp275
I19
(dp276
sI10
g216
sI51
(dp277
sI86
(dp278
sI27
(dp279
sI30
(dp280
ssI17
(dp281
I64
(dp282
sI2
g137
sI99
(dp283
sI13
g248
sI49
(dp284
sI82
(dp285
sI88
(dp286
sI94
(dp287
ssI18
(dp288
I65
(dp289
sI6
g184
sI11
g227
sI55
(dp290
sI27
(dp291
sI28
(dp292
sI62
(dp293
sI95
(dp294
ssI19
(dp295
I96
(dp296
sI36
(dp297
sI37
(dp298
sI77
(dp299
sI46
(dp300
sI16
g276
sI49
(dp301
sI50
(dp302
sI20
(dp303
sI93
(dp304
ssI20
(dp305
I33
(dp306
sI11
g228
sI81
(dp307
sI19
g303
sI56
(dp308
sI25
(dp309
sI88
(dp310
sI31
(dp311
ssI21
(dp312
I32
(dp313
sI3
g155
sI68
(dp314
sI37
(dp315
sI7
g193
sI12
g239
sI45
(dp316
sI46
(dp317
sI80
(dp318
sI89
(dp319
sI69
(dp320
ssI22
(dp321
I34
(dp322
sI8
g201
sI12
g240
sI49
(dp323
sI82
(dp324
sI88
(dp325
sI57
(dp326
sI90
(dp327
sI29
(dp328
sI62
(dp329
sI95
(dp330
ssI23
(dp331
I64
(dp332
sI33
(dp333
sI41
(dp334
sI11
g231
sI76
(dp335
sI45
(dp336
sI83
(dp337
sI25
(dp338
sI90
(dp339
sI29
(dp340
sI62
(dp341
ssI24
(dp342
I98
(dp343
sI36
(dp344
sI71
(dp345
sI41
(dp346
sI43
(dp347
sI13
g247
sI14
g261
sI80
(dp348
sI83
(dp349
sI26
(dp350
sI92
(dp351
ssI25
(dp352
I66
(dp353
sI4
g161
sI37
(dp354
sI80
(dp355
sI20
g309
sI23
g338
sI52
(dp356
sI60
(dp357
sI93
(dp358
sI62
(dp359
sI5
g178
ssI26
(dp360
I65
(dp361
sI35
(dp362
sI6
g187
sI39
(dp363
sI8
g202
sI92
(dp364
sI79
(dp365
sI81
(dp366
sI87
(dp367
sI24
g350
sI90
(dp368
sI28
(dp369
ssI27
(dp370
I3
g153
sI37
(dp371
sI71
(dp372
sI14
g262
sI47
(dp373
sI16
g279
sI18
g291
sI83
(dp374
sI56
(dp375
sI89
(dp376
sI90
(dp377
sI62
(dp378
ssI28
(dp379
I32
(dp380
sI2
g139
sI68
(dp381
sI82
(dp382
sI18
g292
sI51
(dp383
sI56
(dp384
sI26
g369
sI61
(dp385
sI31
(dp386
ssI29
(dp387
I4
g164
sI39
(dp388
sI81
(dp389
sI83
(dp390
sI90
(dp391
sI22
g328
sI23
g340
sI58
(dp392
sI61
(dp393
sI31
(dp394
ssI30
(dp395
I32
(dp396
sI64
(dp397
sI80
(dp398
sI46
(dp399
sI16
g280
sI50
(dp400
sI83
(dp401
sI57
(dp402
sI62
(dp403
sI63
(dp404
ssI31
(dp405
I2
g140
sI76
(dp406
sI48
(dp407
sI20
g311
sI59
(dp408
sI28
g386
sI29
g394
ssI32
(dp409
I34
(dp410
sI35
(dp411
sI38
(dp412
sI49
(dp413
sI21
g313
sI87
(dp414
sI58
(dp415
sI28
g380
sI30
g396
sI85
(dp416
ssI33
(dp417
I64
(dp418
sI98
(dp419
sI41
(dp420
sI74
(dp421
sI44
(dp422
sI47
(dp423
sI82
(dp424
sI51
(dp425
sI20
g306
sI94
(dp426
sI23
g333
sI57
(dp427
sI15
g265
sI93
(dp428
sI62
(dp429
ssI34
(dp430
I0
g113
sI32
g410
sI86
(dp431
sI75
(dp432
sI46
(dp433
sI47
(dp434
sI49
(dp435
sI82
(dp436
sI22
g322
sI88
(dp437
sI95
(dp438
ssI35
(dp439
I32
g411
sI64
(dp440
sI5
g168
sI73
(dp441
sI14
g254
sI80
(dp442
sI50
(dp443
sI84
(dp444
sI85
(dp445
sI26
g362
sI95
(dp446
ssI36
(dp447
I1
g125
sI4
g158
sI70
(dp448
sI74
(dp449
sI12
g236
sI46
(dp450
sI47
(dp451
sI88
(dp452
sI19
g297
sI53
(dp453
sI86
(dp454
sI24
g344
sI68
(dp455
sI95
(dp456
ssI37
(dp457
I96
(dp458
sI67
(dp459
sI7
g189
sI44
(dp460
sI19
g298
sI21
g315
sI25
g354
sI27
g371
ssI38
(dp461
I32
g412
sI65
(dp462
sI4
g159
sI76
(dp463
sI58
(dp464
sI91
(dp465
sI60
(dp466
ssI39
(dp467
I3
g144
sI10
g209
sI29
g388
sI90
(dp468
sI26
g363
sI61
(dp469
sI62
(dp470
ssI40
(dp471
I67
(dp472
sI8
g198
sI10
g210
sI78
(dp473
sI55
(dp474
sI88
(dp475
sI92
(dp476
sI93
(dp477
ssI41
(dp478
I96
(dp479
sI33
g420
sI59
(dp480
sI11
g222
sI47
(dp481
sI88
(dp482
sI50
(dp483
sI67
(dp484
sI23
g334
sI24
g346
sI87
(dp485
sI15
g266
sI63
(dp486
ssI42
(dp487
I72
(dp488
sI11
g223
sI15
g274
sI49
(dp489
sI84
(dp490
sI58
(dp491
ssI43
(dp492
I98
(dp493
sI8
g199
sI74
(dp494
sI76
(dp495
sI47
(dp496
sI79
(dp497
sI24
g347
sI90
(dp498
sI59
(dp499
ssI44
(dp500
I64
(dp501
sI33
g422
sI98
(dp502
sI37
g460
sI6
g183
sI45
(dp503
sI78
(dp504
sI50
(dp505
sI52
(dp506
sI53
(dp507
sI89
(dp508
sI58
(dp509
sI94
(dp510
ssI45
(dp511
I98
(dp512
sI4
g160
sI44
g503
sI12
g238
sI15
g268
sI21
g316
sI73
(dp513
sI23
g336
sI88
(dp514
sI47
(dp515
ssI46
(dp516
I34
g433
sI99
(dp517
sI36
g450
sI10
g214
sI80
(dp518
sI19
g300
sI21
g317
sI86
(dp519
sI55
(dp520
sI95
(dp521
sI30
g399
sI85
(dp522
ssI47
(dp523
I33
g423
sI34
g434
sI36
g451
sI41
g481
sI10
g218
sI43
g496
sI76
(dp524
sI45
g515
sI50
(dp525
sI87
(dp526
sI68
(dp527
sI27
g373
sI74
(dp528
ssI48
(dp529
I11
g225
sI14
g257
sI49
(dp530
sI51
(dp531
sI54
(dp532
sI56
(dp533
sI88
(dp534
sI94
(dp535
sI31
g407
ssI49
(dp536
I0
g116
sI1
g128
sI34
g435
sI65
(dp537
sI32
g413
sI64
(dp538
sI42
g489
sI48
g530
sI17
g284
sI19
g301
sI85
(dp539
sI22
g323
sI87
(dp540
sI56
(dp541
sI92
(dp542
ssI50
(dp543
I35
g443
sI41
g483
sI10
g217
sI44
g505
sI47
g525
sI19
g302
sI74
(dp544
sI30
g400
ssI51
(dp545
I33
g425
sI48
g531
sI16
g277
sI88
(dp546
sI89
(dp547
sI28
g383
sI93
(dp548
ssI52
(dp549
I0
g117
sI96
(dp550
sI74
(dp551
sI44
g506
sI15
g270
sI53
(dp552
sI25
g356
ssI53
(dp553
I64
(dp554
sI3
g149
sI36
g453
sI8
g200
sI11
g229
sI44
g507
sI14
g260
sI72
(dp555
sI82
(dp556
sI52
g552
sI57
(dp557
ssI54
(dp558
I3
g150
sI69
(dp559
sI93
(dp560
sI79
(dp561
sI48
g532
sI82
(dp562
sI83
(dp563
sI86
(dp564
sI15
g271
sI61
(dp565
ssI55
(dp566
I0
g118
sI65
(dp567
sI2
g138
sI5
g176
sI40
g474
sI46
g520
sI18
g290
ssI56
(dp568
I66
(dp569
sI5
g177
sI11
g232
sI77
(dp570
sI15
g272
sI48
g533
sI49
g541
sI20
g308
sI27
g375
sI28
g384
ssI57
(dp571
I33
g427
sI66
(dp572
sI67
(dp573
sI12
g243
sI53
g557
sI22
g326
sI30
g402
sI95
(dp574
ssI58
(dp575
I32
g415
sI38
g464
sI70
(dp576
sI76
(dp577
sI42
g491
sI44
g509
sI77
(dp578
sI29
g392
ssI59
(dp579
I3
g142
sI68
(dp580
sI41
g480
sI43
g499
sI86
(dp581
sI87
(dp582
sI92
(dp583
sI31
g408
ssI60
(dp584
I99
(dp585
sI38
g466
sI71
(dp586
sI74
(dp587
sI78
(dp588
sI25
g357
sI92
(dp589
ssI61
(dp590
I3
g154
sI28
g385
sI29
g393
sI54
g565
sI39
g469
ssI62
(dp591
I33
g429
sI97
(dp592
sI69
(dp593
sI39
g470
sI18
g293
sI22
g329
sI23
g341
sI88
(dp594
sI25
g359
sI27
g378
sI30
g403
ssI63
(dp595
I1
g133
sI69
(dp596
sI41
g486
sI11
g233
sI86
(dp597
sI30
g404
ssI64
(dp598
I1
g122
sI35
g440
sI49
g538
sI70
(dp599
sI33
g418
sI44
g501
sI17
g282
sI82
(dp600
sI53
g554
sI23
g332
sI30
g397
ssI65
(dp601
I1
g123
sI38
g462
sI9
g206
sI75
(dp602
sI49
g537
sI18
g289
sI55
g567
sI26
g361
ssI66
(dp603
I5
g167
sI79
(dp604
sI57
g572
sI87
(dp605
sI56
g569
sI25
g353
ssI67
(dp606
I37
g459
sI40
g472
sI41
g484
sI78
(dp607
sI79
(dp608
sI57
g573
sI90
(dp609
sI91
(dp610
ssI68
(dp611
I0
g114
sI97
(dp612
sI3
g143
sI36
g455
sI47
g527
sI80
(dp613
sI21
g314
sI88
(dp614
sI59
g580
sI28
g381
ssI69
(dp615
I5
g169
sI70
(dp616
sI71
(dp617
sI73
(dp618
sI14
g255
sI21
g320
sI54
g559
sI62
g593
sI63
g596
ssI70
(dp619
I64
g599
sI97
(dp620
sI2
g135
sI36
g448
sI5
g170
sI8
g197
sI73
(dp621
sI80
(dp622
sI84
(dp623
sI88
(dp624
sI58
g576
sI69
g616
ssI71
(dp625
I69
g617
sI10
g212
sI11
g221
sI13
g251
sI24
g345
sI27
g372
sI60
g586
ssI72
(dp626
I90
(dp627
sI42
g488
sI83
(dp628
sI12
g237
sI53
g555
ssI73
(dp629
I35
g441
sI11
g230
sI45
g513
sI70
g621
sI69
g618
ssI74
(dp630
I33
g421
sI36
g449
sI5
g179
sI10
g211
sI43
g494
sI47
g528
sI50
g544
sI83
(dp631
sI52
g551
sI60
g587
ssI75
(dp632
I65
g602
sI34
g432
sI77
(dp633
sI15
g267
sI90
(dp634
sI91
(dp635
sI92
(dp636
ssI76
(dp637
I99
(dp638
sI38
g463
sI7
g191
sI43
g495
sI47
g524
sI80
(dp639
sI23
g335
sI58
g577
sI31
g406
ssI77
(dp640
I97
(dp641
sI75
g633
sI5
g173
sI11
g224
sI14
g256
sI80
(dp642
sI19
g299
sI85
(dp643
sI56
g570
sI58
g578
sI91
(dp644
sI92
(dp645
ssI78
(dp646
I67
g607
sI7
g192
sI40
g473
sI44
g504
sI80
(dp647
sI82
(dp648
sI60
g588
ssI79
(dp649
I1
g127
sI66
g604
sI67
g608
sI43
g497
sI13
g249
sI81
(dp650
sI54
g561
sI26
g365
sI92
(dp651
ssI80
(dp652
I0
g115
sI96
(dp653
sI3
g146
sI68
g613
sI70
g622
sI9
g205
sI11
g220
sI76
g639
sI77
g642
sI46
g518
sI35
g442
sI21
g318
sI24
g348
sI25
g355
sI78
g647
sI30
g398
ssI81
(dp654
I96
(dp655
sI11
g226
sI93
(dp656
sI79
g650
sI82
(dp657
sI20
g307
sI26
g366
sI29
g389
ssI82
(dp658
I64
g600
sI33
g424
sI34
g436
sI54
g562
sI6
g185
sI81
g657
sI10
g213
sI78
g648
sI86
(dp659
sI14
g259
sI17
g285
sI53
g556
sI22
g324
sI28
g382
sI93
(dp660
ssI83
(dp661
I1
g129
sI3
g148
sI6
g186
sI72
g628
sI74
g631
sI93
(dp662
sI91
(dp663
sI84
(dp664
sI54
g563
sI23
g337
sI24
g349
sI27
g374
sI92
(dp665
sI29
g390
sI30
g401
ssI84
(dp666
I35
g444
sI5
g175
sI70
g623
sI42
g490
sI83
g664
sI85
(dp667
sI94
(dp668
ssI85
(dp669
I32
g416
sI35
g445
sI77
g643
sI46
g522
sI49
g539
sI84
g667
sI14
g263
sI87
(dp670
ssI86
(dp671
I34
g431
sI36
g454
sI46
g519
sI16
g278
sI82
g659
sI54
g564
sI59
g581
sI92
(dp672
sI93
(dp673
sI63
g597
ssI87
(dp674
I32
g414
sI66
g605
sI3
g151
sI41
g485
sI12
g241
sI47
g526
sI49
g540
sI85
g670
sI26
g367
sI59
g582
sI94
(dp675
ssI88
(dp676
I34
g437
sI36
g452
sI70
g624
sI7
g194
sI40
g475
sI41
g482
sI12
g242
sI45
g514
sI14
g258
sI48
g534
sI17
g286
sI51
g546
sI20
g310
sI22
g325
sI68
g614
sI62
g594
ssI89
(dp677
I96
(dp678
sI98
(dp679
sI3
g152
sI44
g508
sI15
g273
sI51
g547
sI21
g319
sI27
g376
sI94
(dp680
ssI90
(dp681
I67
g609
sI4
g162
sI39
g468
sI72
g627
sI9
g207
sI43
g498
sI75
g634
sI22
g327
sI23
g339
sI26
g368
sI27
g377
sI29
g391
ssI91
(dp682
I1
g130
sI83
g663
sI67
g610
sI4
g163
sI38
g465
sI75
g635
sI12
g244
sI77
g644
sI3
g147
ssI92
(dp683
I97
(dp684
sI8
g203
sI75
g636
sI77
g645
sI79
g651
sI49
g542
sI83
g665
sI86
g672
sI40
g476
sI24
g351
sI26
g364
sI59
g583
sI60
g589
ssI93
(dp685
I0
g120
sI1
g131
sI83
g662
sI3
g145
sI33
g428
sI51
g548
sI7
g195
sI40
g477
sI15
g269
sI81
g656
sI82
g660
sI19
g304
sI54
g560
sI25
g358
sI86
g673
ssI94
(dp686
I1
g132
sI99
(dp687
sI33
g426
sI12
g245
sI44
g510
sI48
g535
sI17
g287
sI84
g668
sI87
g675
sI89
g680
ssI95
(dp688
I34
g438
sI35
g446
sI36
g456
sI98
(dp689
sI46
g521
sI18
g294
sI22
g330
sI57
g574
ssI96
(dp690
I4
g157
sI5
g166
sI41
g479
sI14
g253
sI80
g653
sI81
g655
sI19
g296
sI52
g550
sI89
g678
sI37
g458
ssI97
(dp691
I92
g684
sI68
g612
sI70
g620
sI62
g592
sI77
g641
ssI98
(dp692
I33
g419
sI43
g493
sI44
g502
sI45
g512
sI24
g343
sI89
g679
sI95
g689
ssI99
(dp693
I5
g174
sI6
g181
sI76
g638
sI12
g235
sI13
g250
sI46
g517
sI17
g283
sI60
g585
sI94
g687
sssS'adj'
p694
g111
sb.