ccopy_reg
_reconstructor
p1
(cnetworkx.classes.graph
Graph
p2
c__builtin__
object
p3
NtRp4
(dp5
S'node'
p6
(dp7
I0
(dp8
sI1
(dp9
sI2
(dp10
sI3
(dp11
sI4
(dp12
sI5
(dp13
sI6
(dp14
sI7
(dp15
sI8
(dp16
sI9
(dp17
sI10
(dp18
sI11
(dp19
sI12
(dp20
sI13
(dp21
sI14
(dp22
sI15
(dp23
sI16
(dp24
sI17
(dp25
sI18
(dp26
sI19
(dp27
sI20
(dp28
sI21
(dp29
sI22
(dp30
sI23
(dp31
sI24
(dp32
sI25
(dp33
sI26
(dp34
sI27
(dp35
sI28
(dp36
sI29
(dp37
sI30
(dp38
sI31
(dp39
sI32
(dp40
sI33
(dp41
sI34
(dp42
sI35
(dp43
sI36
(dp44
sI37
(dp45
sI38
(dp46
sI39
(dp47
sI40
(dp48
sI41
(dp49
sI42
(dp50
sI43
(dp51
sI44
(dp52
sI45
(dp53
sI46
(dp54
sI47
(dp55
sI48
(dp56
sI49
(dp57
sI50
(dp58
sI51
(dp59
sI52
(dp60
sI53
(dp61
sI54
(dp62
sI55
(dp63
sI56
(dp64
sI57
(dp65
sI58
(dp66
sI59
(dp67
sI60
(dp68
sI61
(dp69
sI62
(dp70
sI63
(dp71
sI64
(dp72
sI65
(dp73
sI66
(dp74
sI67
(dp75
sI68
(dp76
sI69
(dp77
ssS'graph'
p78
(dp79
sS'edge'
p80
(dp81
I0
(dp82
I8
(dp83
sI9
(dp84
sI10
(dp85
sI15
(dp86
sI19
(dp87
sI21
(dp88
sI22
(dp89
sI24
(dp90
sI25
(dp91
sI28
(dp92
sI30
(dp93
sI33
(dp94
sI36
(dp95
sI44
(dp96
sI47
(dp97
sI48
(dp98
sI49
(dp99
sI51
(dp100
sI53
(dp101
sI54
(dp102
sI61
(dp103
sI63
(dp104
sI64
(dp105
sI65
(dp106
sI66
(dp107
ssI1
(dp108
I3
(dp109
sI6
(dp110
sI10
(dp111
sI17
(dp112
sI18
(dp113
sI19
(dp114
sI21
(dp115
sI22
(dp116
sI29
(dp117
sI31
(dp118
sI34
(dp119
sI36
(dp120
sI37
(dp121
sI39
(dp122
sI40
(dp123
sI41
(dp124
sI47
(dp125
sI48
(dp126
sI51
(dp127
sI55
(dp128
sI64
(dp129
sI66
(dp130
sI68
(dp131
ssI2
(dp132
I35
(dp133
sI4
(dp134
sI38
(dp135
sI6
(dp136
sI39
(dp137
sI8
(dp138
sI60
(dp139
sI42
(dp140
sI45
(dp141
sI59
(dp142
sI48
(dp143
sI40
(dp144
sI19
(dp145
sI53
(dp146
sI49
(dp147
sI68
(dp148
sI26
(dp149
sI27
(dp150
sI28
(dp151
sI63
(dp152
ssI3
(dp153
I1
g109
sI9
(dp154
sI12
(dp155
sI13
(dp156
sI14
(dp157
sI19
(dp158
sI20
(dp159
sI22
(dp160
sI23
(dp161
sI24
(dp162
sI25
(dp163
sI33
(dp164
sI36
(dp165
sI39
(dp166
sI40
(dp167
sI44
(dp168
sI48
(dp169
sI49
(dp170
sI51
(dp171
sI52
(dp172
sI53
(dp173
sI56
(dp174
sI62
(dp175
sI65
(dp176
ssI4
(dp177
I2
g134
sI5
(dp178
sI6
(dp179
sI19
(dp180
sI21
(dp181
sI22
(dp182
sI23
(dp183
sI24
(dp184
sI27
(dp185
sI29
(dp186
sI40
(dp187
sI41
(dp188
sI42
(dp189
sI43
(dp190
sI44
(dp191
sI46
(dp192
sI47
(dp193
sI51
(dp194
sI53
(dp195
sI56
(dp196
sI63
(dp197
sI64
(dp198
sI65
(dp199
sI66
(dp200
sI69
(dp201
ssI5
(dp202
I64
(dp203
sI33
(dp204
sI67
(dp205
sI4
g178
sI68
(dp206
sI7
(dp207
sI41
(dp208
sI42
(dp209
sI46
(dp210
sI54
(dp211
sI57
(dp212
sI26
(dp213
sI27
(dp214
sI58
(dp215
sI30
(dp216
sI63
(dp217
ssI6
(dp218
I1
g110
sI2
g136
sI50
(dp219
sI4
g179
sI42
(dp220
sI11
(dp221
sI34
(dp222
sI46
(dp223
sI16
(dp224
sI18
(dp225
sI20
(dp226
sI62
(dp227
sI26
(dp228
sI59
(dp229
sI30
(dp230
ssI7
(dp231
I34
(dp232
sI67
(dp233
sI5
g207
sI38
(dp234
sI49
(dp235
sI41
(dp236
sI10
(dp237
sI44
(dp238
sI45
(dp239
sI47
(dp240
sI17
(dp241
sI50
(dp242
sI19
(dp243
sI26
(dp244
sI27
(dp245
sI42
(dp246
ssI8
(dp247
I0
g83
sI32
(dp248
sI2
g138
sI67
(dp249
sI37
(dp250
sI33
(dp251
sI42
(dp252
sI43
(dp253
sI14
(dp254
sI50
(dp255
sI46
(dp256
sI23
(dp257
sI56
(dp258
sI55
(dp259
sI27
(dp260
sI62
(dp261
sI69
(dp262
ssI9
(dp263
I0
g84
sI64
(dp264
sI34
(dp265
sI3
g154
sI69
(dp266
sI10
(dp267
sI11
(dp268
sI61
(dp269
sI15
(dp270
sI16
(dp271
sI50
(dp272
sI42
(dp273
sI53
(dp274
sI54
(dp275
sI23
(dp276
sI56
(dp277
sI25
(dp278
sI59
(dp279
sI29
(dp280
sI55
(dp281
ssI10
(dp282
I0
g85
sI1
g111
sI7
g237
sI9
g267
sI12
(dp283
sI18
(dp284
sI19
(dp285
sI21
(dp286
sI34
(dp287
sI38
(dp288
sI39
(dp289
sI40
(dp290
sI42
(dp291
sI43
(dp292
sI44
(dp293
sI46
(dp294
sI52
(dp295
sI54
(dp296
sI55
(dp297
sI56
(dp298
sI58
(dp299
sI64
(dp300
sI66
(dp301
ssI11
(dp302
I6
g221
sI9
g268
sI13
(dp303
sI14
(dp304
sI20
(dp305
sI23
(dp306
sI32
(dp307
sI34
(dp308
sI35
(dp309
sI37
(dp310
sI38
(dp311
sI42
(dp312
sI45
(dp313
sI46
(dp314
sI50
(dp315
sI52
(dp316
sI53
(dp317
sI54
(dp318
sI56
(dp319
sI57
(dp320
sI58
(dp321
sI59
(dp322
sI60
(dp323
sI64
(dp324
sI66
(dp325
ssI12
(dp326
I65
(dp327
sI67
(dp328
sI3
g155
sI36
(dp329
sI54
(dp330
sI40
(dp331
sI10
g283
sI15
(dp332
sI56
(dp333
sI19
(dp334
sI52
(dp335
sI22
(dp336
sI55
(dp337
sI24
(dp338
sI59
(dp339
sI60
(dp340
sI69
(dp341
ssI13
(dp342
I33
(dp343
sI3
g156
sI38
(dp344
sI41
(dp345
sI11
g303
sI14
(dp346
sI16
(dp347
sI17
(dp348
sI19
(dp349
sI52
(dp350
sI21
(dp351
sI46
(dp352
ssI14
(dp353
I3
g157
sI8
g254
sI11
g304
sI13
g346
sI15
(dp354
sI18
(dp355
sI19
(dp356
sI25
(dp357
sI30
(dp358
sI39
(dp359
sI40
(dp360
sI46
(dp361
sI50
(dp362
sI52
(dp363
sI54
(dp364
sI58
(dp365
sI59
(dp366
sI60
(dp367
sI61
(dp368
sI65
(dp369
sI68
(dp370
sI69
(dp371
ssI15
(dp372
I0
g86
sI9
g270
sI12
g332
sI14
g354
sI19
(dp373
sI20
(dp374
sI21
(dp375
sI23
(dp376
sI25
(dp377
sI32
(dp378
sI33
(dp379
sI34
(dp380
sI37
(dp381
sI38
(dp382
sI42
(dp383
sI43
(dp384
sI44
(dp385
sI46
(dp386
sI48
(dp387
sI50
(dp388
sI52
(dp389
sI54
(dp390
sI58
(dp391
sI63
(dp392
sI64
(dp393
ssI16
(dp394
I51
(dp395
sI67
(dp396
sI6
g224
sI9
g271
sI42
(dp397
sI43
(dp398
sI13
g347
sI46
(dp399
sI18
(dp400
sI19
(dp401
sI20
(dp402
sI26
(dp403
sI29
(dp404
sI62
(dp405
ssI17
(dp406
I32
(dp407
sI1
g112
sI35
(dp408
sI68
(dp409
sI38
(dp410
sI7
g241
sI64
(dp411
sI44
(dp412
sI13
g348
sI47
(dp413
sI49
(dp414
sI50
(dp415
sI19
(dp416
sI62
(dp417
sI24
(dp418
sI57
(dp419
sI26
(dp420
sI27
(dp421
sI58
(dp422
sI30
(dp423
sI51
(dp424
ssI18
(dp425
I64
(dp426
sI1
g113
sI67
(dp427
sI68
(dp428
sI37
(dp429
sI6
g225
sI41
(dp430
sI10
g284
sI14
g355
sI16
g400
sI20
(dp431
sI53
(dp432
sI23
(dp433
sI57
(dp434
sI26
(dp435
sI27
(dp436
sI30
(dp437
sI63
(dp438
ssI19
(dp439
I0
g87
sI1
g114
sI2
g145
sI3
g158
sI4
g180
sI7
g243
sI10
g285
sI12
g334
sI13
g349
sI14
g356
sI15
g373
sI16
g401
sI17
g416
sI20
(dp440
sI26
(dp441
sI27
(dp442
sI29
(dp443
sI32
(dp444
sI33
(dp445
sI44
(dp446
sI45
(dp447
sI48
(dp448
sI49
(dp449
sI50
(dp450
sI51
(dp451
sI57
(dp452
sI58
(dp453
sI60
(dp454
sI62
(dp455
sI65
(dp456
sI67
(dp457
sI68
(dp458
ssI20
(dp459
I67
(dp460
sI3
g159
sI68
(dp461
sI38
(dp462
sI6
g226
sI11
g305
sI44
(dp463
sI15
g374
sI16
g402
sI43
(dp464
sI18
g431
sI19
g440
sI56
(dp465
sI62
(dp466
sI23
(dp467
sI24
(dp468
sI26
(dp469
sI28
(dp470
sI58
(dp471
sI30
(dp472
sI69
(dp473
ssI21
(dp474
I0
g88
sI1
g115
sI4
g181
sI69
(dp475
sI39
(dp476
sI10
g286
sI44
(dp477
sI13
g351
sI46
(dp478
sI15
g375
sI52
(dp479
sI53
(dp480
sI54
(dp481
sI55
(dp482
sI56
(dp483
sI59
(dp484
sI62
(dp485
sI63
(dp486
ssI22
(dp487
I0
g89
sI1
g116
sI3
g160
sI4
g182
sI12
g336
sI26
(dp488
sI27
(dp489
sI28
(dp490
sI31
(dp491
sI36
(dp492
sI38
(dp493
sI41
(dp494
sI42
(dp495
sI45
(dp496
sI54
(dp497
sI56
(dp498
sI59
(dp499
sI60
(dp500
sI61
(dp501
sI63
(dp502
sI65
(dp503
sI69
(dp504
ssI23
(dp505
I34
(dp506
sI3
g161
sI4
g183
sI69
(dp507
sI38
(dp508
sI8
g257
sI9
g276
sI11
g306
sI46
(dp509
sI15
g376
sI18
g433
sI20
g467
sI36
(dp510
sI29
(dp511
sI30
(dp512
sI63
(dp513
ssI24
(dp514
I0
g90
sI32
(dp515
sI67
(dp516
sI3
g162
sI4
g184
sI49
(dp517
sI12
g338
sI61
(dp518
sI47
(dp519
sI48
(dp520
sI17
g418
sI51
(dp521
sI20
g468
sI26
(dp522
sI58
(dp523
ssI25
(dp524
I0
g91
sI66
(dp525
sI3
g163
sI36
(dp526
sI69
(dp527
sI40
(dp528
sI9
g278
sI43
(dp529
sI44
(dp530
sI14
g357
sI15
g377
sI51
(dp531
sI41
(dp532
sI56
(dp533
sI47
(dp534
sI29
(dp535
ssI26
(dp536
I2
g149
sI5
g213
sI6
g228
sI7
g244
sI16
g403
sI17
g420
sI18
g435
sI19
g441
sI20
g469
sI22
g488
sI24
g522
sI27
(dp537
sI28
(dp538
sI34
(dp539
sI36
(dp540
sI44
(dp541
sI51
(dp542
sI54
(dp543
sI55
(dp544
sI57
(dp545
sI58
(dp546
sI61
(dp547
sI63
(dp548
sI68
(dp549
ssI27
(dp550
I32
(dp551
sI2
g150
sI4
g185
sI5
g214
sI7
g245
sI8
g260
sI42
(dp552
sI34
(dp553
sI17
g421
sI18
g436
sI19
g442
sI52
(dp554
sI22
g489
sI40
(dp555
sI56
(dp556
sI26
g537
sI54
(dp557
sI61
(dp558
sI30
(dp559
ssI28
(dp560
I0
g92
sI2
g151
sI20
g470
sI22
g490
sI26
g538
sI30
(dp561
sI38
(dp562
sI41
(dp563
sI42
(dp564
sI43
(dp565
sI45
(dp566
sI50
(dp567
sI51
(dp568
sI53
(dp569
sI54
(dp570
sI55
(dp571
sI56
(dp572
sI58
(dp573
sI60
(dp574
sI63
(dp575
sI64
(dp576
sI68
(dp577
sI69
(dp578
ssI29
(dp579
I32
(dp580
sI1
g117
sI35
(dp581
sI4
g186
sI64
(dp582
sI9
g280
sI42
(dp583
sI55
(dp584
sI46
(dp585
sI16
g404
sI49
(dp586
sI19
g443
sI23
g511
sI56
(dp587
sI25
g535
sI58
(dp588
sI63
(dp589
sI31
(dp590
ssI30
(dp591
I0
g93
sI5
g216
sI6
g230
sI14
g358
sI17
g423
sI18
g437
sI20
g472
sI23
g512
sI27
g559
sI28
g561
sI31
(dp592
sI34
(dp593
sI37
(dp594
sI39
(dp595
sI41
(dp596
sI43
(dp597
sI44
(dp598
sI52
(dp599
sI53
(dp600
sI54
(dp601
sI58
(dp602
sI62
(dp603
sI65
(dp604
sI68
(dp605
ssI31
(dp606
I1
g118
sI66
(dp607
sI68
(dp608
sI33
(dp609
sI41
(dp610
sI43
(dp611
sI44
(dp612
sI61
(dp613
sI47
(dp614
sI48
(dp615
sI22
g491
sI57
(dp616
sI58
(dp617
sI29
g590
sI30
g592
ssI32
(dp618
I65
(dp619
sI37
(dp620
sI38
(dp621
sI39
(dp622
sI8
g248
sI11
g307
sI44
(dp623
sI15
g378
sI48
(dp624
sI17
g407
sI50
(dp625
sI19
g444
sI24
g515
sI27
g551
sI29
g580
ssI33
(dp626
I0
g94
sI34
(dp627
sI3
g164
sI66
(dp628
sI5
g204
sI8
g251
sI63
(dp629
sI42
(dp630
sI43
(dp631
sI13
g343
sI15
g379
sI49
(dp632
sI19
g445
sI59
(dp633
sI55
(dp634
sI45
(dp635
sI58
(dp636
sI47
(dp637
sI37
(dp638
sI62
(dp639
sI31
g609
ssI34
(dp640
I1
g119
sI6
g222
sI7
g232
sI9
g265
sI10
g287
sI11
g308
sI15
g380
sI23
g506
sI26
g539
sI27
g553
sI30
g593
sI33
g627
sI35
(dp641
sI40
(dp642
sI41
(dp643
sI50
(dp644
sI55
(dp645
sI57
(dp646
sI59
(dp647
sI61
(dp648
sI63
(dp649
sI67
(dp650
sI69
(dp651
ssI35
(dp652
I34
g641
sI68
(dp653
sI38
(dp654
sI39
(dp655
sI40
(dp656
sI11
g309
sI44
(dp657
sI2
g133
sI47
(dp658
sI17
g408
sI57
(dp659
sI60
(dp660
sI29
g581
sI62
(dp661
sI63
(dp662
ssI36
(dp663
I0
g95
sI1
g120
sI3
g165
sI12
g329
sI22
g492
sI23
g510
sI25
g526
sI26
g540
sI38
(dp664
sI39
(dp665
sI43
(dp666
sI45
(dp667
sI46
(dp668
sI48
(dp669
sI49
(dp670
sI52
(dp671
sI54
(dp672
sI59
(dp673
sI64
(dp674
sI65
(dp675
sI66
(dp676
sI69
(dp677
ssI37
(dp678
I32
g620
sI1
g121
sI68
(dp679
sI69
(dp680
sI38
(dp681
sI33
g638
sI8
g250
sI11
g310
sI44
(dp682
sI50
(dp683
sI15
g381
sI18
g429
sI57
(dp684
sI60
(dp685
sI30
g594
sI65
(dp686
ssI38
(dp687
I2
g135
sI7
g234
sI10
g288
sI11
g311
sI13
g344
sI15
g382
sI17
g410
sI20
g462
sI22
g493
sI23
g508
sI28
g562
sI32
g621
sI35
g654
sI36
g664
sI37
g681
sI40
(dp688
sI42
(dp689
sI43
(dp690
sI46
(dp691
sI54
(dp692
sI62
(dp693
sI64
(dp694
ssI39
(dp695
I32
g622
sI1
g122
sI2
g137
sI3
g166
sI36
g665
sI69
(dp696
sI64
(dp697
sI41
(dp698
sI10
g289
sI44
(dp699
sI14
g359
sI47
(dp700
sI49
(dp701
sI35
g655
sI21
g476
sI55
(dp702
sI58
(dp703
sI60
(dp704
sI42
(dp705
sI30
g595
sI53
(dp706
ssI40
(dp707
I1
g123
sI2
g144
sI3
g167
sI4
g187
sI38
g688
sI41
(dp708
sI10
g290
sI67
(dp709
sI12
g331
sI34
g642
sI14
g360
sI47
(dp710
sI35
g656
sI52
(dp711
sI57
(dp712
sI56
(dp713
sI25
g528
sI58
(dp714
sI27
g555
sI61
(dp715
sI51
(dp716
ssI41
(dp717
I1
g124
sI34
g643
sI50
(dp718
sI4
g188
sI5
g208
sI7
g236
sI40
g708
sI63
(dp719
sI39
g698
sI13
g345
sI18
g430
sI51
(dp720
sI69
(dp721
sI62
(dp722
sI22
g494
sI57
(dp723
sI25
g532
sI54
(dp724
sI28
g563
sI30
g596
sI31
g610
ssI42
(dp725
I2
g140
sI4
g189
sI5
g209
sI6
g220
sI7
g246
sI8
g252
sI9
g273
sI10
g291
sI11
g312
sI15
g383
sI16
g397
sI22
g495
sI27
g552
sI28
g564
sI29
g583
sI33
g630
sI38
g689
sI39
g705
sI44
(dp726
sI45
(dp727
sI46
(dp728
sI48
(dp729
sI49
(dp730
sI54
(dp731
sI56
(dp732
sI60
(dp733
sI64
(dp734
sI66
(dp735
sI68
(dp736
ssI43
(dp737
I4
g190
sI8
g253
sI10
g292
sI15
g384
sI16
g398
sI20
g464
sI25
g529
sI28
g565
sI30
g597
sI31
g611
sI33
g631
sI36
g666
sI38
g690
sI46
(dp738
sI51
(dp739
sI52
(dp740
sI53
(dp741
sI56
(dp742
sI57
(dp743
sI60
(dp744
sI64
(dp745
sI65
(dp746
sI69
(dp747
ssI44
(dp748
I0
g96
sI3
g168
sI4
g191
sI7
g238
sI10
g293
sI15
g385
sI17
g412
sI19
g446
sI20
g463
sI21
g477
sI25
g530
sI26
g541
sI30
g598
sI31
g612
sI32
g623
sI35
g657
sI37
g682
sI39
g699
sI42
g726
sI47
(dp749
sI48
(dp750
sI50
(dp751
sI53
(dp752
sI54
(dp753
sI57
(dp754
sI59
(dp755
sI66
(dp756
sI68
(dp757
ssI45
(dp758
I64
(dp759
sI33
g635
sI2
g141
sI67
(dp760
sI36
g667
sI69
(dp761
sI7
g239
sI42
g727
sI11
g313
sI66
(dp762
sI47
(dp763
sI50
(dp764
sI19
g447
sI22
g496
sI57
(dp765
sI28
g566
sI61
(dp766
ssI46
(dp767
I4
g192
sI5
g210
sI6
g223
sI8
g256
sI10
g294
sI11
g314
sI13
g352
sI14
g361
sI15
g386
sI16
g399
sI21
g478
sI23
g509
sI29
g585
sI36
g668
sI38
g691
sI42
g728
sI43
g738
sI47
(dp768
sI50
(dp769
sI52
(dp770
sI56
(dp771
sI57
(dp772
sI63
(dp773
sI66
(dp774
sI68
(dp775
ssI47
(dp776
I0
g97
sI1
g125
sI35
g658
sI4
g193
sI33
g637
sI65
(dp777
sI7
g240
sI40
g710
sI64
(dp778
sI39
g700
sI44
g749
sI45
g763
sI46
g768
sI17
g413
sI56
(dp779
sI24
g519
sI25
g534
sI63
(dp780
sI69
(dp781
sI31
g614
ssI48
(dp782
I0
g98
sI1
g126
sI2
g143
sI3
g169
sI36
g669
sI51
(dp783
sI32
g624
sI42
g729
sI67
(dp784
sI44
g750
sI66
(dp785
sI15
g387
sI19
g448
sI52
(dp786
sI24
g520
sI57
(dp787
sI65
(dp788
sI61
(dp789
sI31
g615
ssI49
(dp790
I0
g99
sI33
g632
sI2
g147
sI3
g170
sI36
g670
sI7
g235
sI64
(dp791
sI42
g730
sI39
g701
sI66
(dp792
sI61
(dp793
sI17
g414
sI19
g449
sI52
(dp794
sI24
g517
sI29
g586
sI63
(dp795
ssI50
(dp796
I32
g625
sI64
(dp797
sI34
g644
sI68
(dp798
sI37
g683
sI6
g219
sI7
g242
sI8
g255
sI9
g272
sI11
g315
sI44
g751
sI45
g764
sI14
g362
sI15
g388
sI17
g415
sI19
g450
sI46
g769
sI41
g718
sI28
g567
sI60
(dp799
sI62
(dp800
ssI51
(dp801
I0
g100
sI1
g127
sI3
g171
sI4
g194
sI16
g395
sI17
g424
sI19
g451
sI24
g521
sI25
g531
sI26
g542
sI28
g568
sI40
g716
sI41
g720
sI43
g739
sI48
g783
sI52
(dp802
sI53
(dp803
sI56
(dp804
sI58
(dp805
sI60
(dp806
sI61
(dp807
sI63
(dp808
ssI52
(dp809
I3
g172
sI10
g295
sI11
g316
sI12
g335
sI13
g350
sI14
g363
sI15
g389
sI21
g479
sI27
g554
sI30
g599
sI36
g671
sI40
g711
sI43
g740
sI46
g770
sI48
g786
sI49
g794
sI51
g802
sI55
(dp810
sI64
(dp811
sI65
(dp812
sI66
(dp813
sI69
(dp814
ssI53
(dp815
I0
g101
sI65
(dp816
sI2
g146
sI3
g173
sI4
g195
sI68
(dp817
sI39
g706
sI9
g274
sI11
g317
sI44
g752
sI66
(dp818
sI60
(dp819
sI43
g741
sI18
g432
sI51
g803
sI21
g480
sI57
(dp820
sI28
g569
sI30
g600
ssI54
(dp821
I0
g102
sI5
g211
sI9
g275
sI10
g296
sI11
g318
sI12
g330
sI14
g364
sI15
g390
sI21
g481
sI22
g497
sI26
g543
sI27
g557
sI28
g570
sI30
g601
sI36
g672
sI38
g692
sI41
g724
sI42
g731
sI44
g753
sI55
(dp822
sI56
(dp823
sI57
(dp824
sI59
(dp825
sI63
(dp826
sI67
(dp827
ssI55
(dp828
I64
(dp829
sI1
g128
sI34
g645
sI68
(dp830
sI65
(dp831
sI33
g634
sI8
g259
sI9
g281
sI10
g297
sI39
g702
sI12
g337
sI60
(dp832
sI52
g810
sI21
g482
sI54
g822
sI57
(dp833
sI26
g544
sI28
g571
sI29
g584
ssI56
(dp834
I3
g174
sI4
g196
sI8
g258
sI9
g277
sI10
g298
sI11
g319
sI12
g333
sI20
g465
sI21
g483
sI22
g498
sI25
g533
sI27
g556
sI28
g572
sI29
g587
sI40
g713
sI42
g732
sI43
g742
sI46
g771
sI47
g779
sI51
g804
sI54
g823
sI60
(dp835
sI61
(dp836
sI63
(dp837
sI65
(dp838
sI69
(dp839
ssI57
(dp840
I5
g212
sI11
g320
sI17
g419
sI18
g434
sI19
g452
sI26
g545
sI31
g616
sI34
g646
sI35
g659
sI37
g684
sI40
g712
sI41
g723
sI43
g743
sI44
g754
sI45
g765
sI46
g772
sI48
g787
sI53
g820
sI54
g824
sI55
g833
sI67
(dp841
sI68
(dp842
sI69
(dp843
ssI58
(dp844
I64
(dp845
sI33
g636
sI67
(dp846
sI5
g215
sI51
g805
sI39
g703
sI40
g714
sI10
g299
sI11
g321
sI14
g365
sI15
g391
sI17
g422
sI19
g453
sI20
g471
sI24
g523
sI26
g546
sI59
(dp847
sI28
g573
sI29
g588
sI30
g602
sI31
g617
ssI59
(dp848
I33
g633
sI2
g142
sI67
(dp849
sI36
g673
sI54
g825
sI6
g229
sI9
g279
sI11
g322
sI12
g339
sI34
g647
sI14
g366
sI44
g755
sI21
g484
sI22
g499
sI58
g847
sI62
(dp850
ssI60
(dp851
I51
g806
sI2
g139
sI35
g660
sI37
g685
sI39
g704
sI42
g733
sI11
g323
sI12
g340
sI14
g367
sI43
g744
sI50
g799
sI19
g454
sI53
g819
sI22
g500
sI55
g832
sI56
g835
sI28
g574
sI62
(dp852
ssI61
(dp853
I0
g103
sI64
(dp854
sI34
g648
sI66
(dp855
sI69
(dp856
sI63
(dp857
sI40
g715
sI9
g269
sI45
g766
sI14
g368
sI48
g789
sI49
g793
sI51
g807
sI22
g501
sI56
g836
sI24
g518
sI26
g547
sI27
g558
sI62
(dp858
sI31
g613
ssI62
(dp859
I33
g639
sI3
g175
sI38
g693
sI6
g227
sI65
(dp860
sI8
g261
sI41
g722
sI16
g405
sI17
g417
sI50
g800
sI19
g455
sI20
g466
sI21
g485
sI59
g850
sI60
g852
sI61
g858
sI30
g603
sI35
g661
ssI63
(dp861
I0
g104
sI2
g152
sI4
g197
sI5
g217
sI15
g392
sI18
g438
sI21
g486
sI22
g502
sI23
g513
sI26
g548
sI28
g575
sI29
g589
sI33
g629
sI34
g649
sI35
g662
sI41
g719
sI46
g773
sI47
g780
sI49
g795
sI51
g808
sI54
g826
sI56
g837
sI61
g857
sI69
(dp862
ssI64
(dp863
I0
g105
sI1
g129
sI4
g198
sI5
g203
sI9
g264
sI10
g300
sI11
g324
sI15
g393
sI17
g411
sI18
g426
sI28
g576
sI29
g582
sI36
g674
sI38
g694
sI39
g697
sI42
g734
sI43
g745
sI45
g759
sI47
g778
sI49
g791
sI50
g797
sI52
g811
sI55
g829
sI58
g845
sI61
g854
sI65
(dp864
sI67
(dp865
ssI65
(dp866
I0
g106
sI32
g619
sI3
g176
sI4
g199
sI37
g686
sI68
(dp867
sI64
g864
sI43
g746
sI12
g327
sI14
g369
sI47
g777
sI48
g788
sI19
g456
sI52
g812
sI53
g816
sI22
g503
sI55
g831
sI56
g838
sI36
g675
sI62
g860
sI30
g604
ssI66
(dp868
I0
g107
sI1
g130
sI4
g200
sI33
g628
sI10
g301
sI11
g325
sI44
g756
sI45
g762
sI46
g774
sI61
g855
sI48
g785
sI49
g792
sI52
g813
sI53
g818
sI25
g525
sI36
g676
sI42
g735
sI31
g607
ssI67
(dp869
I64
g865
sI48
g784
sI34
g650
sI68
(dp870
sI5
g205
sI7
g233
sI8
g249
sI12
g328
sI45
g760
sI16
g396
sI40
g709
sI18
g427
sI19
g457
sI20
g460
sI54
g827
sI24
g516
sI57
g841
sI58
g846
sI59
g849
ssI68
(dp871
I1
g131
sI2
g148
sI5
g206
sI14
g370
sI17
g409
sI18
g428
sI19
g458
sI20
g461
sI26
g549
sI28
g577
sI30
g605
sI31
g608
sI35
g653
sI37
g679
sI42
g736
sI44
g757
sI46
g775
sI50
g798
sI53
g817
sI55
g830
sI57
g842
sI65
g867
sI67
g870
ssI69
(dp872
I4
g201
sI8
g262
sI9
g266
sI12
g341
sI14
g371
sI20
g473
sI21
g475
sI22
g504
sI23
g507
sI25
g527
sI28
g578
sI34
g651
sI36
g677
sI37
g680
sI39
g696
sI41
g721
sI43
g747
sI45
g761
sI47
g781
sI52
g814
sI56
g839
sI57
g843
sI61
g856
sI63
g862
sssS'adj'
p873
g81
sb.