ccopy_reg
_reconstructor
p1
(cnetworkx.classes.graph
Graph
p2
c__builtin__
object
p3
NtRp4
(dp5
S'node'
p6
(dp7
I0
(dp8
sI1
(dp9
sI2
(dp10
sI3
(dp11
sI4
(dp12
sI5
(dp13
sI6
(dp14
sI7
(dp15
sI8
(dp16
sI9
(dp17
sI10
(dp18
sI11
(dp19
sI12
(dp20
sI13
(dp21
sI14
(dp22
sI15
(dp23
sI16
(dp24
sI17
(dp25
sI18
(dp26
sI19
(dp27
ssS'graph'
p28
(dp29
sS'edge'
p30
(dp31
I0
(dp32
I1
(dp33
sI2
(dp34
sI3
(dp35
sI4
(dp36
sI5
(dp37
sI7
(dp38
sI9
(dp39
sI10
(dp40
sI11
(dp41
sI12
(dp42
sI13
(dp43
sI16
(dp44
sI17
(dp45
sI18
(dp46
ssI1
(dp47
I0
g33
sI2
(dp48
sI4
(dp49
sI5
(dp50
sI6
(dp51
sI7
(dp52
sI10
(dp53
sI11
(dp54
sI12
(dp55
sI13
(dp56
sI14
(dp57
sI15
(dp58
sI16
(dp59
sI17
(dp60
sI18
(dp61
sI19
(dp62
ssI2
(dp63
I0
g34
sI1
g48
sI4
(dp64
sI5
(dp65
sI6
(dp66
sI7
(dp67
sI12
(dp68
sI13
(dp69
sI14
(dp70
sI15
(dp71
sI16
(dp72
sI17
(dp73
sI18
(dp74
sI19
(dp75
ssI3
(dp76
I0
g35
sI4
(dp77
sI6
(dp78
sI7
(dp79
sI8
(dp80
sI9
(dp81
sI10
(dp82
sI15
(dp83
sI16
(dp84
sI18
(dp85
sI19
(dp86
ssI4
(dp87
I0
g36
sI1
g49
sI2
g64
sI3
g77
sI10
(dp88
sI11
(dp89
sI12
(dp90
sI13
(dp91
sI14
(dp92
sI15
(dp93
sI16
(dp94
sI17
(dp95
sI18
(dp96
ssI5
(dp97
I0
g37
sI1
g50
sI2
g65
sI7
(dp98
sI8
(dp99
sI12
(dp100
sI13
(dp101
sI14
(dp102
sI15
(dp103
sI16
(dp104
sI17
(dp105
sI18
(dp106
sI19
(dp107
ssI6
(dp108
I1
g51
sI2
g66
sI3
g78
sI7
(dp109
sI9
(dp110
sI10
(dp111
sI11
(dp112
sI16
(dp113
sI17
(dp114
sI18
(dp115
sI19
(dp116
ssI7
(dp117
I0
g38
sI1
g52
sI2
g67
sI3
g79
sI5
g98
sI6
g109
sI9
(dp118
sI11
(dp119
sI13
(dp120
sI17
(dp121
sI18
(dp122
ssI8
(dp123
I3
g80
sI5
g99
sI10
(dp124
sI11
(dp125
sI12
(dp126
sI14
(dp127
sI15
(dp128
sI16
(dp129
sI18
(dp130
sI19
(dp131
ssI9
(dp132
I0
g39
sI3
g81
sI6
g110
sI7
g118
sI11
(dp133
sI12
(dp134
sI14
(dp135
sI15
(dp136
sI16
(dp137
sI18
(dp138
sI19
(dp139
ssI10
(dp140
I0
g40
sI1
g53
sI3
g82
sI4
g88
sI6
g111
sI8
g124
sI11
(dp141
sI15
(dp142
sI16
(dp143
sI18
(dp144
sI19
(dp145
ssI11
(dp146
I0
g41
sI1
g54
sI4
g89
sI6
g112
sI7
g119
sI8
g125
sI9
g133
sI10
g141
sI12
(dp147
sI13
(dp148
sI14
(dp149
sI15
(dp150
sI16
(dp151
sI17
(dp152
sI19
(dp153
ssI12
(dp154
I0
g42
sI1
g55
sI2
g68
sI4
g90
sI5
g100
sI8
g126
sI9
g134
sI11
g147
sI13
(dp155
sI14
(dp156
sI15
(dp157
sI18
(dp158
sI19
(dp159
ssI13
(dp160
I0
g43
sI1
g56
sI2
g69
sI4
g91
sI5
g101
sI7
g120
sI11
g148
sI12
g155
sI14
(dp161
sI15
(dp162
sI16
(dp163
sI17
(dp164
sI18
(dp165
ssI14
(dp166
I1
g57
sI2
g70
sI4
g92
sI5
g102
sI8
g127
sI9
g135
sI11
g149
sI12
g156
sI13
g161
sI15
(dp167
sI17
(dp168
sI18
(dp169
ssI15
(dp170
I1
g58
sI2
g71
sI3
g83
sI4
g93
sI5
g103
sI8
g128
sI9
g136
sI10
g142
sI11
g150
sI12
g157
sI13
g162
sI14
g167
sI17
(dp171
sI19
(dp172
ssI16
(dp173
I0
g44
sI1
g59
sI2
g72
sI3
g84
sI4
g94
sI5
g104
sI6
g113
sI8
g129
sI9
g137
sI10
g143
sI11
g151
sI13
g163
sI17
(dp174
sI18
(dp175
ssI17
(dp176
I0
g45
sI1
g60
sI2
g73
sI4
g95
sI5
g105
sI6
g114
sI7
g121
sI11
g152
sI13
g164
sI14
g168
sI15
g171
sI16
g174
sI18
(dp177
sI19
(dp178
ssI18
(dp179
I0
g46
sI1
g61
sI2
g74
sI3
g85
sI4
g96
sI5
g106
sI6
g115
sI7
g122
sI8
g130
sI9
g138
sI10
g144
sI12
g158
sI13
g165
sI14
g169
sI16
g175
sI17
g177
sI19
(dp180
ssI19
(dp181
I1
g62
sI2
g75
sI3
g86
sI5
g107
sI6
g116
sI8
g131
sI9
g139
sI10
g145
sI11
g153
sI12
g159
sI15
g172
sI17
g178
sI18
g180
sssS'adj'
p182
g31
sb.